target datalayout = "e-m:e-p270:32:32-p271:32:32-p272:64:64-i64:64-i128:128-f80:128-n8:16:32:64-S128"
target triple = "x86_64-pc-linux-gnu"

%struct.ErrorData = type { i32, i8, i8, i8, i8, ptr, i32, ptr, ptr, ptr, i32, ptr, ptr, ptr, ptr, ptr, ptr, ptr, ptr, ptr, ptr, ptr, ptr, i32, i32, ptr, i32, ptr }
%struct.__va_list_tag = type { i32, i32, ptr, ptr }
%struct.StringInfoData = type { ptr, i32, i32, i32 }

@recursion_depth = internal global i32 0, align 4
@ErrorContext = external global ptr, align 8
@CurrentMemoryContext = external global ptr, align 8
@.str.3 = private unnamed_addr constant [12 x i8] c"postgres-18\00", align 1
@save_format_errnumber = internal global i32 0, align 4
@save_format_domain = internal global ptr null, align 8

; Function Attrs: nounwind uwtable
define dso_local zeroext i1 @in_error_recursion_trouble() #0 {
  %1 = load i32, ptr @recursion_depth, align 4
  %2 = icmp sgt i32 %1, 2
  ret i1 %2
}

; Function Attrs: inlinehint nounwind uwtable
define internal ptr @MemoryContextSwitchTo(ptr noundef %0) #1 {
  %2 = alloca ptr, align 8
  %3 = alloca ptr, align 8
  store ptr %0, ptr %2, align 8
  call void @llvm.lifetime.start.p0(i64 8, ptr %3) #16
  %4 = load ptr, ptr @CurrentMemoryContext, align 8
  store ptr %4, ptr %3, align 8
  %5 = load ptr, ptr %2, align 8
  store ptr %5, ptr @CurrentMemoryContext, align 8
  %6 = load ptr, ptr %3, align 8
  call void @llvm.lifetime.end.p0(i64 8, ptr %3) #16
  ret ptr %6
}

; Function Attrs: nounwind uwtable
define dso_local ptr @format_elog_string(ptr noundef %0, ...) #0 {
  %2 = alloca ptr, align 8
  %3 = alloca %struct.ErrorData, align 8
  %4 = alloca ptr, align 8
  %5 = alloca ptr, align 8
  %6 = alloca ptr, align 8
  %7 = alloca i32, align 4
  %8 = alloca i64, align 8
  %9 = alloca ptr, align 8
  %10 = alloca ptr, align 8
  %11 = alloca %struct.StringInfoData, align 8
  %12 = alloca [1 x %struct.__va_list_tag], align 16
  %13 = alloca i32, align 4
  %14 = alloca i32, align 4
  store ptr %0, ptr %2, align 8
  call void @llvm.lifetime.start.p0(i64 184, ptr %3) #16
  call void @llvm.lifetime.start.p0(i64 8, ptr %4) #16
  call void @llvm.lifetime.start.p0(i64 8, ptr %5) #16
  store ptr %3, ptr %4, align 8
  br label %15

15:                                               ; preds = %1
  call void @llvm.lifetime.start.p0(i64 8, ptr %6) #16
  %16 = load ptr, ptr %4, align 8
  store ptr %16, ptr %6, align 8
  call void @llvm.lifetime.start.p0(i64 4, ptr %7) #16
  store i32 0, ptr %7, align 4
  call void @llvm.lifetime.start.p0(i64 8, ptr %8) #16
  store i64 184, ptr %8, align 8
  %17 = load ptr, ptr %6, align 8
  %18 = ptrtoint ptr %17 to i64
  %19 = and i64 %18, 7
  %20 = icmp eq i64 %19, 0
  br i1 %20, label %21, label %44

21:                                               ; preds = %15
  %22 = load i64, ptr %8, align 8
  %23 = and i64 %22, 7
  %24 = icmp eq i64 %23, 0
  br i1 %24, label %25, label %44

25:                                               ; preds = %21
  %26 = load i32, ptr %7, align 4
  %27 = icmp eq i32 %26, 0
  br i1 %27, label %28, label %44

28:                                               ; preds = %25
  %29 = load i64, ptr %8, align 8
  %30 = icmp ule i64 %29, 1024
  br i1 %30, label %31, label %44

31:                                               ; preds = %28
  call void @llvm.lifetime.start.p0(i64 8, ptr %9) #16
  %32 = load ptr, ptr %6, align 8
  store ptr %32, ptr %9, align 8
  call void @llvm.lifetime.start.p0(i64 8, ptr %10) #16
  %33 = load ptr, ptr %9, align 8
  %34 = load i64, ptr %8, align 8
  %35 = getelementptr inbounds nuw i8, ptr %33, i64 %34
  store ptr %35, ptr %10, align 8
  br label %36

36:                                               ; preds = %40, %31
  %37 = load ptr, ptr %9, align 8
  %38 = load ptr, ptr %10, align 8
  %39 = icmp ult ptr %37, %38
  br i1 %39, label %40, label %43

40:                                               ; preds = %36
  %41 = load ptr, ptr %9, align 8
  %42 = getelementptr inbounds nuw i64, ptr %41, i32 1
  store ptr %42, ptr %9, align 8
  store i64 0, ptr %41, align 8
  br label %36, !llvm.loop !10

43:                                               ; preds = %36
  call void @llvm.lifetime.end.p0(i64 8, ptr %10) #16
  call void @llvm.lifetime.end.p0(i64 8, ptr %9) #16
  br label %49

44:                                               ; preds = %28, %25, %21, %15
  %45 = load ptr, ptr %6, align 8
  %46 = load i32, ptr %7, align 4
  %47 = trunc i32 %46 to i8
  %48 = load i64, ptr %8, align 8
  call void @llvm.memset.p0.i64(ptr align 1 %45, i8 %47, i64 %48, i1 false)
  br label %49

49:                                               ; preds = %44, %43
  call void @llvm.lifetime.end.p0(i64 8, ptr %8) #16
  call void @llvm.lifetime.end.p0(i64 4, ptr %7) #16
  call void @llvm.lifetime.end.p0(i64 8, ptr %6) #16
  br label %50

50:                                               ; preds = %49
  br label %51

51:                                               ; preds = %50
  %52 = load ptr, ptr @save_format_domain, align 8
  %53 = icmp ne ptr %52, null
  br i1 %53, label %54, label %56

54:                                               ; preds = %51
  %55 = load ptr, ptr @save_format_domain, align 8
  br label %57

56:                                               ; preds = %51
  br label %57

57:                                               ; preds = %56, %54
  %58 = phi ptr [ %55, %54 ], [ @.str.3, %56 ]
  %59 = load ptr, ptr %4, align 8
  %60 = getelementptr inbounds nuw %struct.ErrorData, ptr %59, i32 0, i32 8
  store ptr %58, ptr %60, align 8
  %61 = load i32, ptr @save_format_errnumber, align 4
  %62 = load ptr, ptr %4, align 8
  %63 = getelementptr inbounds nuw %struct.ErrorData, ptr %62, i32 0, i32 26
  store i32 %61, ptr %63, align 8
  %64 = load ptr, ptr @ErrorContext, align 8
  %65 = call ptr @MemoryContextSwitchTo(ptr noundef %64)
  store ptr %65, ptr %5, align 8
  %66 = load ptr, ptr %2, align 8
  %67 = load ptr, ptr %4, align 8
  %68 = getelementptr inbounds nuw %struct.ErrorData, ptr %67, i32 0, i32 17
  store ptr %66, ptr %68, align 8
  call void @llvm.lifetime.start.p0(i64 24, ptr %11) #16
  %69 = call zeroext i1 @in_error_recursion_trouble()
  br i1 %69, label %72, label %70

70:                                               ; preds = %57
  %71 = load ptr, ptr %2, align 8
  store ptr %71, ptr %2, align 8
  br label %72

72:                                               ; preds = %70, %57
  call void @initStringInfo(ptr noundef %11)
  br label %73

73:                                               ; preds = %90, %72
  call void @llvm.lifetime.start.p0(i64 24, ptr %12) #16
  call void @llvm.lifetime.start.p0(i64 4, ptr %13) #16
  %74 = load ptr, ptr %4, align 8
  %75 = getelementptr inbounds nuw %struct.ErrorData, ptr %74, i32 0, i32 26
  %76 = load i32, ptr %75, align 8
  %77 = call ptr @__errno_location() #19
  store i32 %76, ptr %77, align 4
  %78 = getelementptr inbounds [1 x %struct.__va_list_tag], ptr %12, i64 0, i64 0
  call void @llvm.va_start.p0(ptr %78)
  %79 = load ptr, ptr %2, align 8
  %80 = getelementptr inbounds [1 x %struct.__va_list_tag], ptr %12, i64 0, i64 0
  %81 = call i32 @appendStringInfoVA(ptr noundef %11, ptr noundef %79, ptr noundef %80)
  store i32 %81, ptr %13, align 4
  %82 = getelementptr inbounds [1 x %struct.__va_list_tag], ptr %12, i64 0, i64 0
  call void @llvm.va_end.p0(ptr %82)
  %83 = load i32, ptr %13, align 4
  %84 = icmp eq i32 %83, 0
  br i1 %84, label %85, label %86

85:                                               ; preds = %73
  store i32 6, ptr %14, align 4
  br label %88

86:                                               ; preds = %73
  %87 = load i32, ptr %13, align 4
  call void @enlargeStringInfo(ptr noundef %11, i32 noundef %87)
  store i32 0, ptr %14, align 4
  br label %88

88:                                               ; preds = %86, %85
  call void @llvm.lifetime.end.p0(i64 4, ptr %13) #16
  call void @llvm.lifetime.end.p0(i64 24, ptr %12) #16
  %89 = load i32, ptr %14, align 4
  switch i32 %89, label %113 [
    i32 0, label %90
    i32 6, label %91
  ]

90:                                               ; preds = %88
  br label %73

91:                                               ; preds = %88
  %92 = load ptr, ptr %4, align 8
  %93 = getelementptr inbounds nuw %struct.ErrorData, ptr %92, i32 0, i32 11
  %94 = load ptr, ptr %93, align 8
  %95 = icmp ne ptr %94, null
  br i1 %95, label %96, label %100

96:                                               ; preds = %91
  %97 = load ptr, ptr %4, align 8
  %98 = getelementptr inbounds nuw %struct.ErrorData, ptr %97, i32 0, i32 11
  %99 = load ptr, ptr %98, align 8
  call void @pfree(ptr noundef %99)
  br label %100

100:                                              ; preds = %96, %91
  %101 = getelementptr inbounds nuw %struct.StringInfoData, ptr %11, i32 0, i32 0
  %102 = load ptr, ptr %101, align 8
  %103 = call ptr @pstrdup(ptr noundef %102)
  %104 = load ptr, ptr %4, align 8
  %105 = getelementptr inbounds nuw %struct.ErrorData, ptr %104, i32 0, i32 11
  store ptr %103, ptr %105, align 8
  %106 = getelementptr inbounds nuw %struct.StringInfoData, ptr %11, i32 0, i32 0
  %107 = load ptr, ptr %106, align 8
  call void @pfree(ptr noundef %107)
  call void @llvm.lifetime.end.p0(i64 24, ptr %11) #16
  %108 = load ptr, ptr %5, align 8
  %109 = call ptr @MemoryContextSwitchTo(ptr noundef %108)
  %110 = load ptr, ptr %4, align 8
  %111 = getelementptr inbounds nuw %struct.ErrorData, ptr %110, i32 0, i32 11
  %112 = load ptr, ptr %111, align 8
  store i32 1, ptr %14, align 4
  call void @llvm.lifetime.end.p0(i64 8, ptr %5) #16
  call void @llvm.lifetime.end.p0(i64 8, ptr %4) #16
  call void @llvm.lifetime.end.p0(i64 184, ptr %3) #16
  ret ptr %112

113:                                              ; preds = %88
  unreachable
}