; Function Attrs: nounwind uwtable
define dso_local ptr @format_elog_string(ptr noundef %0, ...) local_unnamed_addr #3 {
  %2 = alloca %struct.StringInfoData, align 8
  %3 = alloca [1 x %struct.__va_list_tag], align 16
  %4 = load i32, ptr @save_format_errnumber, align 4
  %5 = load ptr, ptr @ErrorContext, align 8
  %6 = load ptr, ptr @CurrentMemoryContext, align 8
  store ptr %5, ptr @CurrentMemoryContext, align 8
  call void @llvm.lifetime.start.p0(i64 24, ptr nonnull %2) #32
  call void @initStringInfo(ptr noundef nonnull %2) #32
  %7 = tail call ptr @__errno_location() #34
  call void @llvm.lifetime.start.p0(i64 24, ptr nonnull %3) #32
  store i32 %4, ptr %7, align 4
  call void @llvm.va_start.p0(ptr nonnull %3)
  %8 = call i32 @appendStringInfoVA(ptr noundef nonnull %2, ptr noundef %0, ptr noundef nonnull %3) #32
  call void @llvm.va_end.p0(ptr nonnull %3)
  %9 = icmp eq i32 %8, 0
  br i1 %9, label %.loopexit, label %.lr.ph

.lr.ph:                                           ; preds = %1, %.lr.ph
  %10 = phi i32 [ %11, %.lr.ph ], [ %8, %1 ]
  call void @enlargeStringInfo(ptr noundef nonnull %2, i32 noundef %10) #32
  call void @llvm.lifetime.end.p0(i64 24, ptr nonnull %3) #32
  call void @llvm.lifetime.start.p0(i64 24, ptr nonnull %3) #32
  store i32 %4, ptr %7, align 4
  call void @llvm.va_start.p0(ptr nonnull %3)
  %11 = call i32 @appendStringInfoVA(ptr noundef nonnull %2, ptr noundef %0, ptr noundef nonnull %3) #32
  call void @llvm.va_end.p0(ptr nonnull %3)
  %12 = icmp eq i32 %11, 0
  br i1 %12, label %.loopexit, label %.lr.ph

.loopexit:                                        ; preds = %.lr.ph, %1
  call void @llvm.lifetime.end.p0(i64 24, ptr nonnull %3) #32
  %.pre = load ptr, ptr %2, align 8
  %13 = call ptr @pstrdup(ptr noundef %.pre) #32
  %14 = load ptr, ptr %2, align 8
  call void @pfree(ptr noundef %14) #32
  call void @llvm.lifetime.end.p0(i64 24, ptr nonnull %2) #32
  store ptr %6, ptr @CurrentMemoryContext, align 8
  ret ptr %13
}